target datalayout = "e-m:e-p270:32:32-p271:32:32-p272:64:64-i64:64-i128:128-f80:128-n8:16:32:64-S128"
target triple = "x86_64-pc-linux-gnu"

%struct.VP8LBitEntropy = type { float, i32, i32, i32, i32 }

@VP8LFastSLog2Slow = hidden global ptr null, align 8

; Function Attrs: nounwind uwtable
define internal float @VP8LFastSLog2(i32 noundef %0) #0 {
  %2 = alloca i32, align 4
  store i32 %0, ptr %2, align 4
  %3 = load i32, ptr %2, align 4
  %4 = icmp ult i32 %3, 256
  br i1 %4, label %5, label %10

5:                                                ; preds = %1
  %6 = load i32, ptr %2, align 4
  %7 = zext i32 %6 to i64
  %8 = getelementptr inbounds [256 x float], ptr @kSLog2Table, i64 0, i64 %7
  %9 = load float, ptr %8, align 4
  br label %14

10:                                               ; preds = %1
  %11 = load ptr, ptr @VP8LFastSLog2Slow, align 8
  %12 = load i32, ptr %2, align 4
  %13 = call float %11(i32 noundef %12)
  br label %14

14:                                               ; preds = %10, %5
  %15 = phi float [ %9, %5 ], [ %13, %10 ]
  ret float %15
}

; Function Attrs: nounwind uwtable
define hidden void @VP8LBitEntropyInit(ptr noundef %0) #0 {
  %2 = alloca ptr, align 8
  store ptr %0, ptr %2, align 8
  %3 = load ptr, ptr %2, align 8
  %4 = getelementptr inbounds %struct.VP8LBitEntropy, ptr %3, i32 0, i32 0
  store float 0.000000e+00, ptr %4, align 4
  %5 = load ptr, ptr %2, align 8
  %6 = getelementptr inbounds %struct.VP8LBitEntropy, ptr %5, i32 0, i32 1
  store i32 0, ptr %6, align 4
  %7 = load ptr, ptr %2, align 8
  %8 = getelementptr inbounds %struct.VP8LBitEntropy, ptr %7, i32 0, i32 2
  store i32 0, ptr %8, align 4
  %9 = load ptr, ptr %2, align 8
  %10 = getelementptr inbounds %struct.VP8LBitEntropy, ptr %9, i32 0, i32 3
  store i32 0, ptr %10, align 4
  %11 = load ptr, ptr %2, align 8
  %12 = getelementptr inbounds %struct.VP8LBitEntropy, ptr %11, i32 0, i32 4
  store i32 -1, ptr %12, align 4
  ret void
}

; Function Attrs: nounwind uwtable
define hidden void @VP8LBitsEntropyUnrefined(ptr noundef %0, i32 noundef %1, ptr noundef %2) #0 {
  %4 = alloca ptr, align 8
  %5 = alloca i32, align 4
  %6 = alloca ptr, align 8
  %7 = alloca i32, align 4
  store ptr %0, ptr %4, align 8
  store i32 %1, ptr %5, align 4
  store ptr %2, ptr %6, align 8
  %8 = load ptr, ptr %6, align 8
  call void @VP8LBitEntropyInit(ptr noundef %8)
  store i32 0, ptr %7, align 4
  br label %9

9:                                                ; preds = %66, %3
  %10 = load i32, ptr %7, align 4
  %11 = load i32, ptr %5, align 4
  %12 = icmp slt i32 %10, %11
  br i1 %12, label %13, label %69

13:                                               ; preds = %9
  %14 = load ptr, ptr %4, align 8
  %15 = load i32, ptr %7, align 4
  %16 = sext i32 %15 to i64
  %17 = getelementptr inbounds i32, ptr %14, i64 %16
  %18 = load i32, ptr %17, align 4
  %19 = icmp ne i32 %18, 0
  br i1 %19, label %20, label %65

20:                                               ; preds = %13
  %21 = load ptr, ptr %4, align 8
  %22 = load i32, ptr %7, align 4
  %23 = sext i32 %22 to i64
  %24 = getelementptr inbounds i32, ptr %21, i64 %23
  %25 = load i32, ptr %24, align 4
  %26 = load ptr, ptr %6, align 8
  %27 = getelementptr inbounds %struct.VP8LBitEntropy, ptr %26, i32 0, i32 1
  %28 = load i32, ptr %27, align 4
  %29 = add i32 %28, %25
  store i32 %29, ptr %27, align 4
  %30 = load i32, ptr %7, align 4
  %31 = load ptr, ptr %6, align 8
  %32 = getelementptr inbounds %struct.VP8LBitEntropy, ptr %31, i32 0, i32 4
  store i32 %30, ptr %32, align 4
  %33 = load ptr, ptr %6, align 8
  %34 = getelementptr inbounds %struct.VP8LBitEntropy, ptr %33, i32 0, i32 2
  %35 = load i32, ptr %34, align 4
  %36 = add nsw i32 %35, 1
  store i32 %36, ptr %34, align 4
  %37 = load ptr, ptr %4, align 8
  %38 = load i32, ptr %7, align 4
  %39 = sext i32 %38 to i64
  %40 = getelementptr inbounds i32, ptr %37, i64 %39
  %41 = load i32, ptr %40, align 4
  %42 = call float @VP8LFastSLog2(i32 noundef %41)
  %43 = load ptr, ptr %6, align 8
  %44 = getelementptr inbounds %struct.VP8LBitEntropy, ptr %43, i32 0, i32 0
  %45 = load float, ptr %44, align 4
  %46 = fsub float %45, %42
  store float %46, ptr %44, align 4
  %47 = load ptr, ptr %6, align 8
  %48 = getelementptr inbounds %struct.VP8LBitEntropy, ptr %47, i32 0, i32 3
  %49 = load i32, ptr %48, align 4
  %50 = load ptr, ptr %4, align 8
  %51 = load i32, ptr %7, align 4
  %52 = sext i32 %51 to i64
  %53 = getelementptr inbounds i32, ptr %50, i64 %52
  %54 = load i32, ptr %53, align 4
  %55 = icmp ult i32 %49, %54
  br i1 %55, label %56, label %64

56:                                               ; preds = %20
  %57 = load ptr, ptr %4, align 8
  %58 = load i32, ptr %7, align 4
  %59 = sext i32 %58 to i64
  %60 = getelementptr inbounds i32, ptr %57, i64 %59
  %61 = load i32, ptr %60, align 4
  %62 = load ptr, ptr %6, align 8
  %63 = getelementptr inbounds %struct.VP8LBitEntropy, ptr %62, i32 0, i32 3
  store i32 %61, ptr %63, align 4
  br label %64

64:                                               ; preds = %56, %20
  br label %65

65:                                               ; preds = %64, %13
  br label %66

66:                                               ; preds = %65
  %67 = load i32, ptr %7, align 4
  %68 = add nsw i32 %67, 1
  store i32 %68, ptr %7, align 4
  br label %9, !llvm.loop !4

69:                                               ; preds = %9
  %70 = load ptr, ptr %6, align 8
  %71 = getelementptr inbounds %struct.VP8LBitEntropy, ptr %70, i32 0, i32 1
  %72 = load i32, ptr %71, align 4
  %73 = call float @VP8LFastSLog2(i32 noundef %72)
  %74 = load ptr, ptr %6, align 8
  %75 = getelementptr inbounds %struct.VP8LBitEntropy, ptr %74, i32 0, i32 0
  %76 = load float, ptr %75, align 4
  %77 = fadd float %76, %73
  store float %77, ptr %75, align 4
  ret void
}